08048414 <main>:
 8048414:	55                   	push   ebp
 8048415:	89 e5                	mov    ebp,esp
 8048417:	83 ec 28             	sub    esp,0x28
 804841a:	83 e4 f0             	and    esp,0xfffffff0
 804841d:	b8 00 00 00 00       	mov    eax,0x0
 8048422:	83 c0 0f             	add    eax,0xf
 8048425:	83 c0 0f             	add    eax,0xf
 8048428:	c1 e8 04             	shr    eax,0x4
 804842b:	c1 e0 04             	shl    eax,0x4
 804842e:	29 c4                	sub    esp,eax
 8048430:	c7 04 24 68 85 04 08 	mov    DWORD PTR [esp],0x8048568
 8048437:	e8 04 ff ff ff       	call   8048340 <printf@plt>
 804843c:	c7 04 24 81 85 04 08 	mov    DWORD PTR [esp],0x8048581
 8048443:	e8 f8 fe ff ff       	call   8048340 <printf@plt>
 8048448:	8d 45 e8             	lea    eax,[ebp-0x18]
 804844b:	89 44 24 04          	mov    DWORD PTR [esp+0x4],eax
 804844f:	c7 04 24 8c 85 04 08 	mov    DWORD PTR [esp],0x804858c     # Put the format string "%s" onto the stack
 8048456:	e8 d5 fe ff ff       	call   8048330 <scanf@plt>
 804845b:	8d 45 e8             	lea    eax,[ebp-0x18]                # Move the entered password into eax...
 804845e:	c7 44 24 04 8f 85 04 	mov    DWORD PTR [esp+0x4],0x804858f # Move the correct password onto the stack
 8048465:	08 
 8048466:	89 04 24             	mov    DWORD PTR [esp],eax           # Move the entered password onto the stack
 8048469:	e8 e2 fe ff ff       	call   8048350 <strcmp@plt>          # Compare the correct password with the one entered
 804846e:	85 c0                	test   eax,eax                       #
 8048470:	74 0e                	je     8048480 <main+0x6c>           # If they are the same...
 8048472:	c7 04 24 96 85 04 08 	mov    DWORD PTR [esp],0x8048596     # |     Otherwise...
 8048479:	e8 c2 fe ff ff       	call   8048340 <printf@plt>          # |     ...print faiure...
 804847e:	eb 0c                	jmp    804848c <main+0x78>           # v     ...and end
 8048480:	c7 04 24 a9 85 04 08 	mov    DWORD PTR [esp],0x80485a9     # ...print success
 8048487:	e8 b4 fe ff ff       	call   8048340 <printf@plt>          # ...and end
 804848c:	b8 00 00 00 00       	mov    eax,0x0
 8048491:	c9                   	leave  
 8048492:	c3                   	ret    
 8048493:	90                   	nop
 8048494:	90                   	nop
 8048495:	90                   	nop
 8048496:	90                   	nop
 8048497:	90                   	nop
 8048498:	90                   	nop
 8048499:	90                   	nop
 804849a:	90                   	nop
 804849b:	90                   	nop
 804849c:	90                   	nop
 804849d:	90                   	nop
 804849e:	90                   	nop
 804849f:	90                   	nop
